; Function Attrs: mustprogress uwtable
define hidden void @_ZN7Imf_3_219TiledRgbaOutputFile4ToYaC2ERNS_15TiledOutputFileENS_12RgbaChannelsE(ptr nocapture noundef nonnull align 8 dereferenceable(80) %this, ptr noundef nonnull align 8 dereferenceable(25) %outputFile, i32 noundef %rgbaChannels) unnamed_addr #3 align 2 personality ptr @__gxx_personality_v0 {
entry:
  %ref.tmp = alloca %"class.Imath_3_2::Vec3", align 8
  store ptr %outputFile, ptr %this, align 8
  %_yw = getelementptr inbounds i8, ptr %this, i64 20
  %_buf = getelementptr inbounds i8, ptr %this, i64 32
  tail call void @llvm.memset.p0.i64(ptr noundef nonnull align 8 dereferenceable(24) %_buf, i8 0, i64 24, i1 false)
  %_writeA = getelementptr inbounds i8, ptr %this, i64 8
  %0 = trunc i32 %rgbaChannels to i8
  %1 = lshr i8 %0, 3
  %frombool = and i8 %1, 1
  store i8 %frombool, ptr %_writeA, align 8
  %call = invoke noundef nonnull align 8 dereferenceable(49) ptr @_ZNK7Imf_3_215TiledOutputFile6headerEv(ptr noundef nonnull align 8 dereferenceable(25) %outputFile)
          to label %invoke.cont unwind label %lpad

invoke.cont:                                      ; preds = %entry
  %call3 = invoke noundef nonnull align 4 dereferenceable(16) ptr @_ZNK7Imf_3_26Header15tileDescriptionEv(ptr noundef nonnull align 8 dereferenceable(49) %call)
          to label %invoke.cont2 unwind label %lpad

invoke.cont2:                                     ; preds = %invoke.cont
  %2 = load i32, ptr %call3, align 4
  %_tileXSize = getelementptr inbounds i8, ptr %this, i64 12
  store i32 %2, ptr %_tileXSize, align 4
  %ySize = getelementptr inbounds i8, ptr %call3, i64 4
  %3 = load i32, ptr %ySize, align 4
  %_tileYSize = getelementptr inbounds i8, ptr %this, i64 16
  store i32 %3, ptr %_tileYSize, align 8
  %4 = load ptr, ptr %this, align 8
  %call6 = invoke noundef nonnull align 8 dereferenceable(49) ptr @_ZNK7Imf_3_215TiledOutputFile6headerEv(ptr noundef nonnull align 8 dereferenceable(25) %4)
          to label %invoke.cont5 unwind label %lpad

invoke.cont5:                                     ; preds = %invoke.cont2
  invoke fastcc void @_ZN7Imf_3_212_GLOBAL__N_112ywFromHeaderERKNS_6HeaderE(ptr noalias nonnull align 4 %ref.tmp, ptr noundef nonnull align 8 dereferenceable(49) %call6)
          to label %invoke.cont7 unwind label %lpad

invoke.cont7:                                     ; preds = %invoke.cont5
  %5 = load <2 x float>, ptr %ref.tmp, align 8
  store <2 x float> %5, ptr %_yw, align 4
  %z.i = getelementptr inbounds i8, ptr %ref.tmp, i64 8
  %6 = load float, ptr %z.i, align 8
  %z4.i = getelementptr inbounds i8, ptr %this, i64 28
  store float %6, ptr %z4.i, align 4
  %7 = load i32, ptr %_tileYSize, align 8
  %conv = zext i32 %7 to i64
  %8 = load i32, ptr %_tileXSize, align 4
  %conv13 = zext i32 %8 to i64
  %mul.i = mul nuw nsw i64 %conv13, %conv
  %9 = icmp ugt i64 %mul.i, 2305843009213693951
  %10 = shl i64 %mul.i, 3
  %11 = select i1 %9, i64 -1, i64 %10
  %call.i3 = invoke noalias noundef nonnull ptr @_Znam(i64 noundef %11) #13
          to label %call.i.noexc unwind label %lpad

call.i.noexc:                                     ; preds = %invoke.cont7
  %_data.i = getelementptr inbounds i8, ptr %this, i64 48
  %12 = load ptr, ptr %_data.i, align 8
  %isnull.i = icmp eq ptr %12, null
  br i1 %isnull.i, label %invoke.cont14, label %delete.notnull.i

delete.notnull.i:                                 ; preds = %call.i.noexc
  call void @_ZdaPv(ptr noundef nonnull %12) #14
  br label %invoke.cont14

invoke.cont14:                                    ; preds = %delete.notnull.i, %call.i.noexc
  store i64 %conv, ptr %_buf, align 8
  %_sizeY.i = getelementptr inbounds i8, ptr %this, i64 40
  store i64 %conv13, ptr %_sizeY.i, align 8
  store ptr %call.i3, ptr %_data.i, align 8
  %_fbBase = getelementptr inbounds i8, ptr %this, i64 56
  call void @llvm.memset.p0.i64(ptr noundef nonnull align 8 dereferenceable(24) %_fbBase, i8 0, i64 24, i1 false)
  ret void

lpad:                                             ; preds = %invoke.cont7, %invoke.cont5, %invoke.cont2, %invoke.cont, %entry
  %13 = landingpad { ptr, i32 }
          cleanup
  %_data.i4 = getelementptr inbounds i8, ptr %this, i64 48
  %14 = load ptr, ptr %_data.i4, align 8
  %isnull.i5 = icmp eq ptr %14, null
  br i1 %isnull.i5, label %_ZN7Imf_3_27Array2DINS_4RgbaEED2Ev.exit, label %delete.notnull.i6

delete.notnull.i6:                                ; preds = %lpad
  call void @_ZdaPv(ptr noundef nonnull %14) #14
  br label %_ZN7Imf_3_27Array2DINS_4RgbaEED2Ev.exit

_ZN7Imf_3_27Array2DINS_4RgbaEED2Ev.exit:          ; preds = %lpad, %delete.notnull.i6
  resume { ptr, i32 } %13
}